target datalayout = "e-m:e-p270:32:32-p271:32:32-p272:64:64-i64:64-i128:128-f80:128-n8:16:32:64-S128"
target triple = "x86_64-pc-linux-gnu"

%struct.prov_aes_gcm_siv_ctx_st = type { ptr, ptr, ptr, ptr, ptr, i64, i64, [32 x i8], [32 x i8], [16 x i8], [16 x i8], [16 x i8], [12 x i8], [16 x %struct.u128], i8 }
%struct.u128 = type { i64, i64 }

@.str = private unnamed_addr constant [66 x i8] c"../openssl/providers/implementations/ciphers/cipher_aes_gcm_siv.c\00", align 1

; Function Attrs: nounwind uwtable
define internal ptr @ossl_aes_gcm_siv_newctx(ptr noundef %0, i64 noundef %1) #0 {
  %3 = alloca ptr, align 8
  %4 = alloca ptr, align 8
  %5 = alloca i64, align 8
  %6 = alloca ptr, align 8
  %7 = alloca i32, align 4
  store ptr %0, ptr %4, align 8, !tbaa !3
  store i64 %1, ptr %5, align 8, !tbaa !25
  call void @llvm.lifetime.start.p0(i64 8, ptr %6) #5
  %8 = call i32 @ossl_prov_is_running()
  %9 = icmp ne i32 %8, 0
  br i1 %9, label %11, label %10

10:                                               ; preds = %2
  store ptr null, ptr %3, align 8
  store i32 1, ptr %7, align 4
  br label %33

11:                                               ; preds = %2
  %12 = call noalias ptr @CRYPTO_zalloc(i64 noundef 448, ptr noundef @.str, i32 noundef 34)
  store ptr %12, ptr %6, align 8, !tbaa !7
  %13 = load ptr, ptr %6, align 8, !tbaa !7
  %14 = icmp ne ptr %13, null
  br i1 %14, label %15, label %31

15:                                               ; preds = %11
  %16 = load i64, ptr %5, align 8, !tbaa !25
  %17 = udiv i64 %16, 8
  %18 = load ptr, ptr %6, align 8, !tbaa !7
  %19 = getelementptr inbounds nuw %struct.prov_aes_gcm_siv_ctx_st, ptr %18, i32 0, i32 6
  store i64 %17, ptr %19, align 8, !tbaa !35
  %20 = load i64, ptr %5, align 8, !tbaa !25
  %21 = call ptr @ossl_prov_cipher_hw_aes_gcm_siv(i64 noundef %20)
  %22 = load ptr, ptr %6, align 8, !tbaa !7
  %23 = getelementptr inbounds nuw %struct.prov_aes_gcm_siv_ctx_st, ptr %22, i32 0, i32 1
  store ptr %21, ptr %23, align 8, !tbaa !19
  %24 = load ptr, ptr %4, align 8, !tbaa !3
  %25 = call ptr @ossl_prov_ctx_get0_libctx(ptr noundef %24)
  %26 = load ptr, ptr %6, align 8, !tbaa !7
  %27 = getelementptr inbounds nuw %struct.prov_aes_gcm_siv_ctx_st, ptr %26, i32 0, i32 3
  store ptr %25, ptr %27, align 8, !tbaa !37
  %28 = load ptr, ptr %4, align 8, !tbaa !3
  %29 = load ptr, ptr %6, align 8, !tbaa !7
  %30 = getelementptr inbounds nuw %struct.prov_aes_gcm_siv_ctx_st, ptr %29, i32 0, i32 4
  store ptr %28, ptr %30, align 8, !tbaa !38
  br label %31

31:                                               ; preds = %15, %11
  %32 = load ptr, ptr %6, align 8, !tbaa !7
  store ptr %32, ptr %3, align 8
  store i32 1, ptr %7, align 4
  br label %33

33:                                               ; preds = %31, %10
  call void @llvm.lifetime.end.p0(i64 8, ptr %6) #5
  %34 = load ptr, ptr %3, align 8
  ret ptr %34
}

; Function Attrs: nounwind uwtable
define internal ptr @ossl_aes192_gcm_siv_newctx(ptr noundef %0) #0 {
  %2 = alloca ptr, align 8
  store ptr %0, ptr %2, align 8, !tbaa !3
  %3 = load ptr, ptr %2, align 8, !tbaa !3
  %4 = call ptr @ossl_aes_gcm_siv_newctx(ptr noundef %3, i64 noundef 192)
  ret ptr %4
}